; Function Attrs: mustprogress nounwind uwtable
define internal fastcc void @_ZN12_GLOBAL__N_114CXXNameMangler27mangleSourceNameWithAbiTagsEPKN5clang9NamedDeclEPKN4llvm11SmallVectorINS5_9StringRefELj4EEE(ptr nocapture noundef nonnull readonly align 8 dereferenceable(280) %0, ptr noundef %1) unnamed_addr #0 align 2 {
  %3 = getelementptr inbounds nuw i8, ptr %1, i64 40
  %4 = load i64, ptr %3, align 8
  %5 = and i64 %4, 7
  %6 = icmp eq i64 %5, 0
  %7 = and i64 %4, -8
  %8 = inttoptr i64 %7 to ptr
  %.0.i.i = select i1 %6, ptr %8, ptr null
  %9 = getelementptr inbounds i8, ptr %0, i64 8
  %.val = load ptr, ptr %9, align 8
  %10 = getelementptr inbounds nuw i8, ptr %.0.i.i, i64 16
  %11 = load ptr, ptr %10, align 8
  %12 = load i64, ptr %11, align 8
  %13 = and i64 %12, 4294967295
  %14 = tail call noundef nonnull align 8 dereferenceable(48) ptr @_ZN4llvm11raw_ostreamlsEm(ptr noundef nonnull align 8 dereferenceable(48) %.val, i64 noundef %13) #24
  %15 = load ptr, ptr %10, align 8
  %16 = getelementptr inbounds i8, ptr %15, i64 16
  %17 = load i64, ptr %15, align 8
  %18 = and i64 %17, 4294967295
  %19 = getelementptr inbounds nuw i8, ptr %14, i64 24
  %20 = load ptr, ptr %19, align 8
  %21 = getelementptr inbounds nuw i8, ptr %14, i64 32
  %22 = load ptr, ptr %21, align 8
  %23 = ptrtoint ptr %20 to i64
  %24 = ptrtoint ptr %22 to i64
  %25 = sub i64 %23, %24
  %26 = icmp ugt i64 %18, %25
  br i1 %26, label %27, label %29

27:                                               ; preds = %2
  %28 = tail call noundef nonnull align 8 dereferenceable(48) ptr @_ZN4llvm11raw_ostream5writeEPKcm(ptr noundef nonnull align 8 dereferenceable(48) %14, ptr noundef nonnull %16, i64 noundef %18) #24
  br label %_ZN12_GLOBAL__N_114CXXNameMangler16mangleSourceNameEPKN5clang14IdentifierInfoE.exit

29:                                               ; preds = %2
  %.not.i.i = icmp eq i64 %18, 0
  br i1 %.not.i.i, label %_ZN12_GLOBAL__N_114CXXNameMangler16mangleSourceNameEPKN5clang14IdentifierInfoE.exit, label %30

30:                                               ; preds = %29
  tail call void @llvm.memcpy.p0.p0.i64(ptr align 1 %22, ptr nonnull align 1 %16, i64 %18, i1 false)
  %31 = load ptr, ptr %21, align 8
  %32 = getelementptr inbounds i8, ptr %31, i64 %18
  store ptr %32, ptr %21, align 8
  br label %_ZN12_GLOBAL__N_114CXXNameMangler16mangleSourceNameEPKN5clang14IdentifierInfoE.exit

_ZN12_GLOBAL__N_114CXXNameMangler16mangleSourceNameEPKN5clang14IdentifierInfoE.exit: ; preds = %27, %29, %30
  tail call fastcc void @_ZN12_GLOBAL__N_114CXXNameMangler12writeAbiTagsEPKN5clang9NamedDeclEPKN4llvm11SmallVectorINS5_9StringRefELj4EEE(ptr noundef nonnull align 8 dereferenceable(280) %0, ptr noundef nonnull %1, ptr noundef null)
  ret void
}